; Function Attrs: mustprogress nofree norecurse nosync nounwind memory(readwrite, inaccessiblemem: none) uwtable
define dso_local void @_ZN8TGAImage15flip_verticallyEv(ptr noundef nonnull readonly align 8 captures(none) dereferenceable(40) %0) local_unnamed_addr #9 align 2 {
  %2 = load i32, ptr %0, align 8, !tbaa !5
  %3 = icmp sgt i32 %2, 0
  br i1 %3, label %.preheader15.lr.ph, label %._crit_edge20

.preheader15.lr.ph:                               ; preds = %1
  %4 = getelementptr inbounds nuw i8, ptr %0, i64 4
  %5 = getelementptr inbounds nuw i8, ptr %0, i64 8
  %6 = getelementptr inbounds nuw i8, ptr %0, i64 16
  %.pre = load i32, ptr %4, align 4, !tbaa !16
  br label %.preheader15

.preheader15:                                     ; preds = %.preheader15.lr.ph, %._crit_edge18
  %7 = phi i32 [ %2, %.preheader15.lr.ph ], [ %15, %._crit_edge18 ]
  %8 = phi i32 [ %.pre, %.preheader15.lr.ph ], [ %16, %._crit_edge18 ]
  %9 = phi i32 [ %.pre, %.preheader15.lr.ph ], [ %17, %._crit_edge18 ]
  %.01319 = phi i32 [ 0, %.preheader15.lr.ph ], [ %18, %._crit_edge18 ]
  %10 = icmp sgt i32 %9, 1
  br i1 %10, label %.preheader.preheader, label %._crit_edge18

.preheader.preheader:                             ; preds = %.preheader15
  %.pre21 = load i8, ptr %5, align 8, !tbaa !17
  br label %.preheader

._crit_edge20:                                    ; preds = %._crit_edge18, %1
  ret void

.preheader:                                       ; preds = %.preheader.preheader, %._crit_edge
  %11 = phi i32 [ %20, %._crit_edge ], [ %8, %.preheader.preheader ]
  %12 = phi i8 [ %21, %._crit_edge ], [ %.pre21, %.preheader.preheader ]
  %.01217 = phi i32 [ %22, %._crit_edge ], [ 0, %.preheader.preheader ]
  %.not = icmp eq i8 %12, 0
  br i1 %.not, label %._crit_edge, label %.lr.ph

.lr.ph:                                           ; preds = %.preheader
  %13 = zext i8 %12 to i32
  %14 = xor i32 %.01217, -1
  br label %25

._crit_edge18.loopexit:                           ; preds = %._crit_edge
  %.pre23 = load i32, ptr %0, align 8, !tbaa !5
  br label %._crit_edge18

._crit_edge18:                                    ; preds = %._crit_edge18.loopexit, %.preheader15
  %15 = phi i32 [ %.pre23, %._crit_edge18.loopexit ], [ %7, %.preheader15 ]
  %16 = phi i32 [ %20, %._crit_edge18.loopexit ], [ %8, %.preheader15 ]
  %17 = phi i32 [ %20, %._crit_edge18.loopexit ], [ %9, %.preheader15 ]
  %18 = add nuw nsw i32 %.01319, 1
  %19 = icmp slt i32 %18, %15
  br i1 %19, label %.preheader15, label %._crit_edge20, !llvm.loop !53

._crit_edge.loopexit:                             ; preds = %25
  %.pre22 = load i32, ptr %4, align 4, !tbaa !16
  br label %._crit_edge

._crit_edge:                                      ; preds = %._crit_edge.loopexit, %.preheader
  %20 = phi i32 [ %.pre22, %._crit_edge.loopexit ], [ %11, %.preheader ]
  %21 = phi i8 [ %46, %._crit_edge.loopexit ], [ 0, %.preheader ]
  %22 = add nuw nsw i32 %.01217, 1
  %23 = sdiv i32 %20, 2
  %24 = icmp slt i32 %22, %23
  br i1 %24, label %.preheader, label %._crit_edge18.loopexit, !llvm.loop !54

25:                                               ; preds = %.lr.ph, %25
  %26 = phi i32 [ %13, %.lr.ph ], [ %47, %25 ]
  %.016 = phi i32 [ 0, %.lr.ph ], [ %45, %25 ]
  %27 = load i32, ptr %0, align 8, !tbaa !5
  %28 = mul nsw i32 %27, %.01217
  %29 = add nsw i32 %28, %.01319
  %30 = mul nsw i32 %29, %26
  %31 = add nsw i32 %30, %.016
  %32 = sext i32 %31 to i64
  %33 = load ptr, ptr %6, align 8, !tbaa !18
  %34 = getelementptr inbounds nuw i8, ptr %33, i64 %32
  %35 = load i32, ptr %4, align 4, !tbaa !16
  %36 = add i32 %35, %14
  %37 = mul nsw i32 %36, %27
  %38 = add nsw i32 %37, %.01319
  %39 = mul nsw i32 %38, %26
  %40 = add nsw i32 %39, %.016
  %41 = sext i32 %40 to i64
  %42 = getelementptr inbounds nuw i8, ptr %33, i64 %41
  %43 = load i8, ptr %34, align 1, !tbaa !48
  %44 = load i8, ptr %42, align 1, !tbaa !48
  store i8 %44, ptr %34, align 1, !tbaa !48
  store i8 %43, ptr %42, align 1, !tbaa !48
  %45 = add nuw nsw i32 %.016, 1
  %46 = load i8, ptr %5, align 8, !tbaa !17
  %47 = zext i8 %46 to i32
  %48 = icmp samesign ult i32 %45, %47
  br i1 %48, label %25, label %._crit_edge.loopexit, !llvm.loop !55
}